Certificate:
    Data:
        Version: 3 (0x2)
        Serial Number: 1 (0x1)
        Signature Algorithm: md5WithRSAEncryption
        Issuer: C=CH, ST=ZH, L=ZH, O=SubCA1, OU=Test, CN=SubCA1/Email=subCA1@someaddr.com
        Validity
            Not Before: May  2 13:38:53 2003 GMT
            Not After : May  1 13:38:53 2004 GMT
        Subject: C=CH, ST=ZH, L=ZH, O=Kim Dojo, OU=Test, CN=atlantis.hsr.loc/Email=subCA1@someaddr.com
        Subject Public Key Info:
            Public Key Algorithm: rsaEncryption
            RSA Public Key: (1024 bit)
                Modulus (1024 bit):
                    00:98:fb:b7:8b:39:3d:70:6c:13:4b:21:95:aa:55:
                    ce:2e:c3:8c:1f:56:e5:78:c4:bd:7a:20:0a:03:0b:
                    22:52:94:9c:8e:83:3e:46:5d:bb:73:96:2c:15:88:
                    90:d4:51:3c:08:43:65:bd:54:54:49:e1:55:48:25:
                    68:43:bf:8d:02:3c:19:b0:09:23:e2:b0:41:35:3b:
                    da:da:b9:ec:20:16:38:3c:ad:17:1c:6c:7a:4a:fc:
                    4f:ab:04:93:b1:8c:a9:f7:9a:61:14:f2:5f:b5:af:
                    f6:66:e8:96:00:78:75:cd:cc:f3:0f:4f:47:5a:de:
                    22:88:0f:99:b6:7a:2a:e8:23
                Exponent: 65537 (0x10001)
        X509v3 extensions:
            X509v3 Basic Constraints:
                CA:FALSE
            Netscape Comment:
                OpenSSL Generated Certificate
            X509v3 Subject Key Identifier:
                21:2A:72:74:E4:98:61:4C:08:C2:F6:0E:C7:99:D5:33:84:DA:F2:7E
            X509v3 Authority Key Identifier:
                keyid:1E:B7:A5:12:84:3C:7D:CA:9E:81:03:C9:1F:1B:AF:0F:90:DF:BB:3E
                DirName:/C=CH/ST=ZH/L=ZH/O=RootCA1/OU=Test/CN=RootCA1/Email=someaddr@somecom.ch
                serial:01

    Signature Algorithm: md5WithRSAEncryption
        c3:5e:7d:ed:94:d9:bb:cc:20:37:86:72:c4:31:e3:1b:db:6f:
        cd:a3:ed:00:62:fe:c6:06:07:2a:e3:fc:4e:71:0f:ed:84:d5:
        c1:f4:b4:7a:7a:21:c6:df:38:e0:2e:e3:7f:85:09:59:82:16:
        b0:b1:aa:87:4c:b6:a8:00:53:0d:9f:c0:1f:19:16:26:b8:13:
        74:77:38:cc:4c:3c:2d:e4:0f:fd:53:d5:70:be:a8:3e:99:b7:
        d0:14:a9:31:85:67:00:d5:68:19:22:f7:ad:f7:64:b3:7d:c0:
        22:80:1b:14:a5:fd:db:e2:70:91:75:15:e2:56:d6:ad:ec:40:
        f5:1c
-----BEGIN CERTIFICATE-----
MIIDiTCCAvKgAwIBAgIBATANBgkqhkiG9w0BAQQFADB8MQswCQYDVQQGEwJDSDEL
MAkGA1UECBMCWkgxCzAJBgNVBAcTAlpIMQ8wDQYDVQQKEwZTdWJDQTExDTALBgNV
BAsTBFRlc3QxDzANBgNVBAMTBlN1YkNBMTEiMCAGCSqGSIb3DQEJARYTc3ViQ0Ex
QHNvbWVhZGRyLmNvbTAeFw0wMzA1MDIxMzM4NTNaFw0wNDA1MDExMzM4NTNaMIGL
MQswCQYDVQQGEwJDSDELMAkGA1UECBMCWkgxCzAJBgNVBAcTAlpIMREwDwYDVQQK
EwhLaW0gRG9qbzENMAsGA1UECxMEVGVzdDEcMBoGA1UEAxMTYXRsYW50aXMuaXRv
cGlhLmxvYzEiMCAGCSqGSIb3DQEJARYTc3ViQ0ExQHNvbWVhZGRyLmNvbTCBnzAN
BgkqhkiG9w0BAQEFAAOBjQAwgYkCgYEAmPu3izk9cGwTSyGVqlXOLsOMH1bleMS9
eiAKAwsiUpScjoM+Rl27c5YsFYiQ1FE8CENlvVRUSeFVSCVoQ7+NAjwZsAkj4rBB
NTva2rnsIBY4PK0XHGx6SvxPqwSTsYyp95phFPJfta/2ZuiWAHh1zczzD09HWt4i
iA+Ztnoq6CMCAwEAAaOCAQkwggEFMAkGA1UdEwQCMAAwLAYJYIZIAYb4QgENBB8W
HU9wZW5TU0wgR2VuZXJhdGVkIENlcnRpZmljYXRlMB0GA1UdDgQWBBQhKnJ05Jhh
TAjC9g7HmdUzhNryfjCBqgYDVR0jBIGiMIGfgBQet6UShDx9yp6BA8kfG68PkN+7
PqGBg6SBgDB+MQswCQYDVQQGEwJDSDELMAkGA1UECBMCWkgxCzAJBgNVBAcTAlpI
MRAwDgYDVQQKEwdSb290Q0ExMQ0wCwYDVQQLEwRUZXN0MRAwDgYDVQQDEwdSb290
Q0ExMSIwIAYJKoZIhvcNAQkBFhNzb21lYWRkckBzb21lY29tLmNoggEBMA0GCSqG
SIb3DQEBBAUAA4GBAMNefe2U2bvMIDeGcsQx4xvbb82j7QBi/sYGByrj/E5xD+2E
1cH0tHp6IcbfOOAu43+FCVmCFrCxqodMtqgAUw2fwB8ZFia4E3R3OMxMPC3kD/1T
1XC+qD6Zt9AUqTGFZwDVaBki9633ZLN9wCKAGxSl/dvicJF1FeJW1q3sQPUc
-----END CERTIFICATE-----
