Certificate:
    Data:
        Version: 3 (0x2)
        Serial Number: 1 (0x1)
        Signature Algorithm: md5WithRSAEncryption
        Issuer: C=CH, ST=ZH, L=ZH, O=RootCA1, OU=Test, CN=RootCA1/Email=someaddr@somecom.ch
        Validity
            Not Before: May  2 13:38:52 2003 GMT
            Not After : May  1 13:38:52 2004 GMT
        Subject: C=CH, ST=ZH, L=ZH, O=SubCA1, OU=Test, CN=SubCA1/Email=subCA1@someaddr.com
        Subject Public Key Info:
            Public Key Algorithm: rsaEncryption
            RSA Public Key: (1024 bit)
                Modulus (1024 bit):
                    00:e7:27:3b:cd:1a:f9:3e:f8:db:4a:8d:c9:f7:9e:
                    9b:1d:ca:3b:c7:f8:d0:dc:4a:d9:a3:cf:e1:28:de:
                    45:3b:4d:a2:7d:eb:a9:48:35:f5:36:4d:a2:4f:35:
                    98:49:37:dc:2f:1a:5c:6d:41:ac:41:09:0e:23:ae:
                    54:99:26:f8:4b:bc:a0:05:3c:35:d1:67:ec:aa:82:
                    ec:46:f5:13:58:f0:5a:1d:bb:18:34:0a:8d:32:03:
                    8f:41:81:f6:37:9c:4d:18:c6:77:82:53:5d:1b:f7:
                    07:2c:49:c9:92:59:8b:46:9d:de:3c:10:af:99:8b:
                    68:41:84:f0:03:49:2e:a4:b9
                Exponent: 65537 (0x10001)
        X509v3 extensions:
            X509v3 Subject Key Identifier:
                1E:B7:A5:12:84:3C:7D:CA:9E:81:03:C9:1F:1B:AF:0F:90:DF:BB:3E
            X509v3 Authority Key Identifier:
                keyid:CF:49:75:39:7C:24:B9:6F:0D:1C:E7:43:7D:C1:D8:DE:A9:5B:D5:C5
                DirName:/C=CH/ST=ZH/L=ZH/O=RootCA1/OU=Test/CN=RootCA1/Email=someaddr@somecom.ch
                serial:00

            X509v3 Basic Constraints:
                CA:TRUE
    Signature Algorithm: md5WithRSAEncryption
        3b:82:f0:7a:2b:62:ce:3e:93:97:eb:72:4a:41:fa:30:88:45:
        f1:27:5f:7b:f6:d7:78:f8:8d:ed:3d:4e:dc:59:8b:cd:60:ef:
        02:7c:f0:3b:cd:2c:c8:a6:9b:dd:90:c2:33:ef:c8:ff:36:46:
        b9:38:ba:c8:04:b5:0e:f6:91:c8:fd:c6:b3:7e:b1:41:62:3b:
        7b:39:07:c4:87:6a:51:6c:d8:a0:f6:d9:2a:f7:c1:af:4f:bc:
        98:da:ac:dd:45:75:38:cf:d8:c8:d0:bb:6c:80:ad:6c:a0:db:
        ca:ff:9d:f4:e6:2a:91:90:42:d2:1b:87:64:a5:06:7e:88:00:
        a3:c3
-----BEGIN CERTIFICATE-----
MIIDTjCCAregAwIBAgIBATANBgkqhkiG9w0BAQQFADB+MQswCQYDVQQGEwJDSDEL
MAkGA1UECBMCWkgxCzAJBgNVBAcTAlpIMRAwDgYDVQQKEwdSb290Q0ExMQ0wCwYD
VQQLEwRUZXN0MRAwDgYDVQQDEwdSb290Q0ExMSIwIAYJKoZIhvcNAQkBFhNzb21l
YWRkckBzb21lY29tLmNoMB4XDTAzMDUwMjEzMzg1MloXDTA0MDUwMTEzMzg1Mlow
fDELMAkGA1UEBhMCQ0gxCzAJBgNVBAgTAlpIMQswCQYDVQQHEwJaSDEPMA0GA1UE
ChMGU3ViQ0ExMQ0wCwYDVQQLEwRUZXN0MQ8wDQYDVQQDEwZTdWJDQTExIjAgBgkq
hkiG9w0BCQEWE3N1YkNBMUBzb21lYWRkci5jb20wgZ8wDQYJKoZIhvcNAQEBBQAD
gY0AMIGJAoGBAOcnO80a+T7420qNyfeemx3KO8f40NxK2aPP4SjeRTtNon3rqUg1
9TZNok81mEk33C8aXG1BrEEJDiOuVJkm+Eu8oAU8NdFn7KqC7Eb1E1jwWh27GDQK
jTIDj0GB9jecTRjGd4JTXRv3ByxJyZJZi0ad3jwQr5mLaEGE8ANJLqS5AgMBAAGj
gd0wgdowHQYDVR0OBBYEFB63pRKEPH3KnoEDyR8brw+Q37s+MIGqBgNVHSMEgaIw
gZ+AFM9JdTl8JLlvDRznQ33B2N6pW9XFoYGDpIGAMH4xCzAJBgNVBAYTAkNIMQsw
CQYDVQQIEwJaSDELMAkGA1UEBxMCWkgxEDAOBgNVBAoTB1Jvb3RDQTExDTALBgNV
BAsTBFRlc3QxEDAOBgNVBAMTB1Jvb3RDQTExIjAgBgkqhkiG9w0BCQEWE3NvbWVh
ZGRyQHNvbWVjb20uY2iCAQAwDAYDVR0TBAUwAwEB/zANBgkqhkiG9w0BAQQFAAOB
gQA7gvB6K2LOPpOX63JKQfowiEXxJ1979td4+I3tPU7cWYvNYO8CfPA7zSzIppvd
kMIz78j/Nka5OLrIBLUO9pHI/cazfrFBYjt7OQfEh2pRbNig9tkq98GvT7yY2qzd
RXU4z9jI0LtsgK1soNvK/5305iqRkELSG4dkpQZ+iACjww==
-----END CERTIFICATE-----
